target datalayout = "e-m:e-p270:32:32-p271:32:32-p272:64:64-i64:64-i128:128-f80:128-n8:16:32:64-S128"
target triple = "x86_64-pc-linux-gnu"

@hf_nfs_status = external global i32, align 4
@.str.66 = private unnamed_addr constant [5 x i8] c"attr\00", align 1

; Function Attrs: null_pointer_is_valid sspstrong uwtable
define internal i32 @dissect_nfsacl2_access_reply(ptr noundef %0, ptr noundef %1, ptr noundef %2, ptr noundef %3) #0 {
  %5 = alloca ptr, align 8
  %6 = alloca ptr, align 8
  %7 = alloca ptr, align 8
  %8 = alloca ptr, align 8
  %9 = alloca i32, align 4
  %10 = alloca i32, align 4
  store ptr %0, ptr %5, align 8
  store ptr %1, ptr %6, align 8
  store ptr %2, ptr %7, align 8
  store ptr %3, ptr %8, align 8
  call void @llvm.lifetime.start.p0(i64 4, ptr %9) #4
  call void @llvm.lifetime.start.p0(i64 4, ptr %10) #4
  store i32 0, ptr %10, align 4
  %11 = load ptr, ptr %5, align 8
  %12 = load i32, ptr %10, align 4
  %13 = add i32 %12, 0
  %14 = call i32 @tvb_get_ntohl(ptr noundef %11, i32 noundef %13)
  store i32 %14, ptr %9, align 4
  %15 = load ptr, ptr %7, align 8
  %16 = load i32, ptr @hf_nfs_status, align 4
  %17 = load ptr, ptr %5, align 8
  %18 = load i32, ptr %10, align 4
  %19 = add i32 %18, 0
  %20 = load i32, ptr %9, align 4
  %21 = call ptr @proto_tree_add_uint(ptr noundef %15, i32 noundef %16, ptr noundef %17, i32 noundef %19, i32 noundef 4, i32 noundef %20)
  %22 = load i32, ptr %10, align 4
  %23 = add i32 %22, 4
  store i32 %23, ptr %10, align 4
  %24 = load i32, ptr %9, align 4
  %25 = icmp eq i32 %24, 0
  br i1 %25, label %26, label %37

26:                                               ; preds = %4
  %27 = load ptr, ptr %5, align 8
  %28 = load i32, ptr %10, align 4
  %29 = load ptr, ptr %7, align 8
  %30 = call i32 @dissect_nfs2_fattr(ptr noundef %27, i32 noundef %28, ptr noundef %29, ptr noundef @.str.66)
  store i32 %30, ptr %10, align 4
  %31 = load ptr, ptr %5, align 8
  %32 = load i32, ptr %10, align 4
  %33 = load ptr, ptr %6, align 8
  %34 = load ptr, ptr %7, align 8
  %35 = load ptr, ptr %8, align 8
  %36 = call i32 @dissect_access_reply(ptr noundef %31, i32 noundef %32, ptr noundef %33, ptr noundef %34, i32 noundef 3, ptr noundef null, ptr noundef %35)
  store i32 %36, ptr %10, align 4
  br label %37

37:                                               ; preds = %26, %4
  %38 = load i32, ptr %10, align 4
  call void @llvm.lifetime.end.p0(i64 4, ptr %10) #4
  call void @llvm.lifetime.end.p0(i64 4, ptr %9) #4
  ret i32 %38
}