; Function Attrs: null_pointer_is_valid sspstrong uwtable
define internal i32 @dissect_nfsacl2_access_reply(ptr noundef %0, ptr noundef %1, ptr noundef %2, ptr noundef %3) #0 {
  %5 = tail call i32 @tvb_get_ntohl(ptr noundef %0, i32 noundef 0)
  %6 = load i32, ptr @hf_nfs_status, align 4
  %7 = tail call ptr @proto_tree_add_uint(ptr noundef %2, i32 noundef %6, ptr noundef %0, i32 noundef 0, i32 noundef 4, i32 noundef %5)
  %8 = icmp eq i32 %5, 0
  br i1 %8, label %9, label %12

9:                                                ; preds = %4
  %10 = tail call i32 @dissect_nfs2_fattr(ptr noundef %0, i32 noundef 4, ptr noundef %2, ptr noundef nonnull @.str.66)
  %11 = tail call i32 @dissect_access_reply(ptr noundef %0, i32 noundef %10, ptr noundef %1, ptr noundef %2, i32 noundef 3, ptr noundef null, ptr noundef %3)
  br label %12

12:                                               ; preds = %9, %4
  %.0 = phi i32 [ %11, %9 ], [ 4, %4 ]
  ret i32 %.0
}